target datalayout = "e-m:e-p270:32:32-p271:32:32-p272:64:64-i64:64-i128:128-f80:128-n8:16:32:64-S128"
target triple = "x86_64-pc-linux-gnu"

%struct.stbi_io_callbacks = type { ptr, ptr, ptr }
%struct.stbi__context = type { i32, i32, i32, i32, %struct.stbi_io_callbacks, ptr, i32, i32, [128 x i8], i32, ptr, ptr, ptr, ptr }

; Function Attrs: mustprogress uwtable
define internal noundef i32 @_ZL10stbi__getnP13stbi__contextPhi(ptr noundef %0, ptr noundef %1, i32 noundef %2) #3 {
  %4 = alloca i32, align 4
  %5 = alloca ptr, align 8
  %6 = alloca ptr, align 8
  %7 = alloca i32, align 4
  %8 = alloca i32, align 4
  %9 = alloca i32, align 4
  %10 = alloca i32, align 4
  %11 = alloca i32, align 4
  store ptr %0, ptr %5, align 8, !tbaa !9
  store ptr %1, ptr %6, align 8, !tbaa !4
  store i32 %2, ptr %7, align 4, !tbaa !10
  %12 = load ptr, ptr %5, align 8, !tbaa !9
  %13 = getelementptr inbounds nuw %struct.stbi__context, ptr %12, i32 0, i32 4
  %14 = getelementptr inbounds nuw %struct.stbi_io_callbacks, ptr %13, i32 0, i32 0
  %15 = load ptr, ptr %14, align 8, !tbaa !24
  %16 = icmp ne ptr %15, null
  br i1 %16, label %17, label %69

17:                                               ; preds = %3
  call void @llvm.lifetime.start.p0(i64 4, ptr %8) #22
  %18 = load ptr, ptr %5, align 8, !tbaa !9
  %19 = getelementptr inbounds nuw %struct.stbi__context, ptr %18, i32 0, i32 11
  %20 = load ptr, ptr %19, align 8, !tbaa !16
  %21 = load ptr, ptr %5, align 8, !tbaa !9
  %22 = getelementptr inbounds nuw %struct.stbi__context, ptr %21, i32 0, i32 10
  %23 = load ptr, ptr %22, align 8, !tbaa !19
  %24 = ptrtoint ptr %20 to i64
  %25 = ptrtoint ptr %23 to i64
  %26 = sub i64 %24, %25
  %27 = trunc i64 %26 to i32
  store i32 %27, ptr %8, align 4, !tbaa !10
  %28 = load i32, ptr %8, align 4, !tbaa !10
  %29 = load i32, ptr %7, align 4, !tbaa !10
  %30 = icmp slt i32 %28, %29
  br i1 %30, label %31, label %65

31:                                               ; preds = %17
  call void @llvm.lifetime.start.p0(i64 4, ptr %9) #22
  call void @llvm.lifetime.start.p0(i64 4, ptr %10) #22
  %32 = load ptr, ptr %6, align 8, !tbaa !4
  %33 = load ptr, ptr %5, align 8, !tbaa !9
  %34 = getelementptr inbounds nuw %struct.stbi__context, ptr %33, i32 0, i32 10
  %35 = load ptr, ptr %34, align 8, !tbaa !19
  %36 = load i32, ptr %8, align 4, !tbaa !10
  %37 = sext i32 %36 to i64
  call void @llvm.memcpy.p0.p0.i64(ptr align 1 %32, ptr align 1 %35, i64 %37, i1 false)
  %38 = load ptr, ptr %5, align 8, !tbaa !9
  %39 = getelementptr inbounds nuw %struct.stbi__context, ptr %38, i32 0, i32 4
  %40 = getelementptr inbounds nuw %struct.stbi_io_callbacks, ptr %39, i32 0, i32 0
  %41 = load ptr, ptr %40, align 8, !tbaa !24
  %42 = load ptr, ptr %5, align 8, !tbaa !9
  %43 = getelementptr inbounds nuw %struct.stbi__context, ptr %42, i32 0, i32 5
  %44 = load ptr, ptr %43, align 8, !tbaa !30
  %45 = load ptr, ptr %6, align 8, !tbaa !4
  %46 = load i32, ptr %8, align 4, !tbaa !10
  %47 = sext i32 %46 to i64
  %48 = getelementptr inbounds i8, ptr %45, i64 %47
  %49 = load i32, ptr %7, align 4, !tbaa !10
  %50 = load i32, ptr %8, align 4, !tbaa !10
  %51 = sub nsw i32 %49, %50
  %52 = call noundef i32 %41(ptr noundef %44, ptr noundef %48, i32 noundef %51)
  store i32 %52, ptr %10, align 4, !tbaa !10
  %53 = load i32, ptr %10, align 4, !tbaa !10
  %54 = load i32, ptr %7, align 4, !tbaa !10
  %55 = load i32, ptr %8, align 4, !tbaa !10
  %56 = sub nsw i32 %54, %55
  %57 = icmp eq i32 %53, %56
  %58 = zext i1 %57 to i32
  store i32 %58, ptr %9, align 4, !tbaa !10
  %59 = load ptr, ptr %5, align 8, !tbaa !9
  %60 = getelementptr inbounds nuw %struct.stbi__context, ptr %59, i32 0, i32 11
  %61 = load ptr, ptr %60, align 8, !tbaa !16
  %62 = load ptr, ptr %5, align 8, !tbaa !9
  %63 = getelementptr inbounds nuw %struct.stbi__context, ptr %62, i32 0, i32 10
  store ptr %61, ptr %63, align 8, !tbaa !19
  %64 = load i32, ptr %9, align 4, !tbaa !10
  store i32 %64, ptr %4, align 4
  store i32 1, ptr %11, align 4
  call void @llvm.lifetime.end.p0(i64 4, ptr %10) #22
  call void @llvm.lifetime.end.p0(i64 4, ptr %9) #22
  br label %66

65:                                               ; preds = %17
  store i32 0, ptr %11, align 4
  br label %66

66:                                               ; preds = %65, %31
  call void @llvm.lifetime.end.p0(i64 4, ptr %8) #22
  %67 = load i32, ptr %11, align 4
  switch i32 %67, label %96 [
    i32 0, label %68
    i32 1, label %94
  ]

68:                                               ; preds = %66
  br label %69

69:                                               ; preds = %68, %3
  %70 = load ptr, ptr %5, align 8, !tbaa !9
  %71 = getelementptr inbounds nuw %struct.stbi__context, ptr %70, i32 0, i32 10
  %72 = load ptr, ptr %71, align 8, !tbaa !19
  %73 = load i32, ptr %7, align 4, !tbaa !10
  %74 = sext i32 %73 to i64
  %75 = getelementptr inbounds i8, ptr %72, i64 %74
  %76 = load ptr, ptr %5, align 8, !tbaa !9
  %77 = getelementptr inbounds nuw %struct.stbi__context, ptr %76, i32 0, i32 11
  %78 = load ptr, ptr %77, align 8, !tbaa !16
  %79 = icmp ule ptr %75, %78
  br i1 %79, label %80, label %93

80:                                               ; preds = %69
  %81 = load ptr, ptr %6, align 8, !tbaa !4
  %82 = load ptr, ptr %5, align 8, !tbaa !9
  %83 = getelementptr inbounds nuw %struct.stbi__context, ptr %82, i32 0, i32 10
  %84 = load ptr, ptr %83, align 8, !tbaa !19
  %85 = load i32, ptr %7, align 4, !tbaa !10
  %86 = sext i32 %85 to i64
  call void @llvm.memcpy.p0.p0.i64(ptr align 1 %81, ptr align 1 %84, i64 %86, i1 false)
  %87 = load i32, ptr %7, align 4, !tbaa !10
  %88 = load ptr, ptr %5, align 8, !tbaa !9
  %89 = getelementptr inbounds nuw %struct.stbi__context, ptr %88, i32 0, i32 10
  %90 = load ptr, ptr %89, align 8, !tbaa !19
  %91 = sext i32 %87 to i64
  %92 = getelementptr inbounds i8, ptr %90, i64 %91
  store ptr %92, ptr %89, align 8, !tbaa !19
  store i32 1, ptr %4, align 4
  br label %94

93:                                               ; preds = %69
  store i32 0, ptr %4, align 4
  br label %94

94:                                               ; preds = %93, %80, %66
  %95 = load i32, ptr %4, align 4
  ret i32 %95

96:                                               ; preds = %66
  unreachable
}