; Function Attrs: mustprogress uwtable
define internal fastcc noundef range(i32 0, 2) i32 @_ZL10stbi__getnP13stbi__contextPhi(ptr noundef nonnull captures(none) %0, ptr noundef nonnull %1, i32 noundef %2) unnamed_addr #5 {
  %4 = getelementptr inbounds nuw i8, ptr %0, i64 16
  %5 = load ptr, ptr %4, align 8, !tbaa !21
  %.not = icmp eq ptr %5, null
  br i1 %.not, label %..thread_crit_edge, label %6

..thread_crit_edge:                               ; preds = %3
  %.phi.trans.insert = getelementptr inbounds nuw i8, ptr %0, i64 192
  %.pre = load ptr, ptr %.phi.trans.insert, align 8, !tbaa !20
  %.phi.trans.insert35 = getelementptr inbounds nuw i8, ptr %0, i64 200
  %.pre36 = load ptr, ptr %.phi.trans.insert35, align 8, !tbaa !23
  br label %.thread

6:                                                ; preds = %3
  %7 = getelementptr inbounds nuw i8, ptr %0, i64 200
  %8 = load ptr, ptr %7, align 8, !tbaa !23
  %9 = getelementptr inbounds nuw i8, ptr %0, i64 192
  %10 = load ptr, ptr %9, align 8, !tbaa !20
  %11 = ptrtoint ptr %8 to i64
  %12 = ptrtoint ptr %10 to i64
  %13 = sub i64 %11, %12
  %14 = trunc i64 %13 to i32
  %15 = icmp sgt i32 %2, %14
  br i1 %15, label %16, label %.thread

16:                                               ; preds = %6
  %sext = shl i64 %13, 32
  %17 = ashr exact i64 %sext, 32
  tail call void @llvm.memcpy.p0.p0.i64(ptr nonnull align 1 %1, ptr align 1 %10, i64 %17, i1 false)
  %18 = load ptr, ptr %4, align 8, !tbaa !21
  %19 = getelementptr inbounds nuw i8, ptr %0, i64 40
  %20 = load ptr, ptr %19, align 8, !tbaa !13
  %21 = getelementptr inbounds i8, ptr %1, i64 %17
  %22 = sub nsw i32 %2, %14
  %23 = tail call noundef i32 %18(ptr noundef %20, ptr noundef nonnull %21, i32 noundef %22)
  %24 = icmp eq i32 %23, %22
  %25 = zext i1 %24 to i32
  %26 = load ptr, ptr %7, align 8, !tbaa !23
  store ptr %26, ptr %9, align 8, !tbaa !20
  br label %35

.thread:                                          ; preds = %..thread_crit_edge, %6
  %27 = phi ptr [ %.pre36, %..thread_crit_edge ], [ %8, %6 ]
  %28 = phi ptr [ %.pre, %..thread_crit_edge ], [ %10, %6 ]
  %29 = sext i32 %2 to i64
  %30 = getelementptr inbounds i8, ptr %28, i64 %29
  %.not32 = icmp ugt ptr %30, %27
  br i1 %.not32, label %35, label %31

31:                                               ; preds = %.thread
  %32 = getelementptr inbounds nuw i8, ptr %0, i64 192
  tail call void @llvm.memcpy.p0.p0.i64(ptr nonnull align 1 %1, ptr align 1 %28, i64 %29, i1 false)
  %33 = load ptr, ptr %32, align 8, !tbaa !20
  %34 = getelementptr inbounds i8, ptr %33, i64 %29
  store ptr %34, ptr %32, align 8, !tbaa !20
  br label %35

35:                                               ; preds = %16, %.thread, %31
  %.1 = phi i32 [ %25, %16 ], [ 1, %31 ], [ 0, %.thread ]
  ret i32 %.1
}